; Function Attrs: nounwind uwtable
define nonnull ptr @l_Lean_IR_ExplicitRC_mustConsume___boxed(ptr noundef %0, ptr noundef %1) local_unnamed_addr #0 {
  %3 = tail call ptr @l_Lean_IR_ExplicitRC_getVarInfo(ptr noundef readonly %0, ptr noundef %1)
  %4 = getelementptr inbounds nuw i8, ptr %3, i64 8
  %5 = load i8, ptr %4, align 1, !tbaa !15
  %6 = icmp eq i8 %5, 0
  br i1 %6, label %7, label %17

7:                                                ; preds = %2
  %8 = ptrtoint ptr %3 to i64
  %9 = and i64 %8, 1
  %.not12.i = icmp eq i64 %9, 0
  br i1 %.not12.i, label %10, label %l_Lean_IR_ExplicitRC_mustConsume.exit

10:                                               ; preds = %7
  %11 = load i32, ptr %3, align 4, !tbaa !8
  %12 = icmp sgt i32 %11, 1
  br i1 %12, label %13, label %15, !prof !11

13:                                               ; preds = %10
  %14 = add nsw i32 %11, -1
  store i32 %14, ptr %3, align 4, !tbaa !8
  br label %l_Lean_IR_ExplicitRC_mustConsume.exit

15:                                               ; preds = %10
  %.not.i.i = icmp eq i32 %11, 0
  br i1 %.not.i.i, label %l_Lean_IR_ExplicitRC_mustConsume.exit, label %16

16:                                               ; preds = %15
  tail call void @lean_dec_ref_cold(ptr noundef nonnull %3) #6
  br label %l_Lean_IR_ExplicitRC_mustConsume.exit

17:                                               ; preds = %2
  %18 = getelementptr inbounds nuw i8, ptr %3, i64 10
  %19 = load i8, ptr %18, align 1, !tbaa !15
  %20 = ptrtoint ptr %3 to i64
  %21 = and i64 %20, 1
  %.not.i8 = icmp eq i64 %21, 0
  br i1 %.not.i8, label %22, label %l_Lean_IR_ExplicitRC_mustConsume.exit

22:                                               ; preds = %17
  %23 = load i32, ptr %3, align 4, !tbaa !8
  %24 = icmp sgt i32 %23, 1
  br i1 %24, label %25, label %27, !prof !11

25:                                               ; preds = %22
  %26 = add nsw i32 %23, -1
  store i32 %26, ptr %3, align 4, !tbaa !8
  br label %l_Lean_IR_ExplicitRC_mustConsume.exit

27:                                               ; preds = %22
  %.not.i10.i = icmp eq i32 %23, 0
  br i1 %.not.i10.i, label %l_Lean_IR_ExplicitRC_mustConsume.exit, label %28

28:                                               ; preds = %27
  tail call void @lean_dec_ref_cold(ptr noundef nonnull %3) #6
  br label %l_Lean_IR_ExplicitRC_mustConsume.exit

l_Lean_IR_ExplicitRC_mustConsume.exit:            ; preds = %7, %13, %15, %16, %17, %25, %27, %28
  %.0.i = phi i8 [ 0, %16 ], [ 0, %15 ], [ 0, %13 ], [ 0, %7 ], [ %19, %28 ], [ %19, %27 ], [ %19, %25 ], [ %19, %17 ]
  %29 = ptrtoint ptr %1 to i64
  %30 = and i64 %29, 1
  %.not = icmp eq i64 %30, 0
  br i1 %.not, label %31, label %lean_dec.exit5

31:                                               ; preds = %l_Lean_IR_ExplicitRC_mustConsume.exit
  %32 = load i32, ptr %1, align 4, !tbaa !8
  %33 = icmp sgt i32 %32, 1
  br i1 %33, label %34, label %36, !prof !11

34:                                               ; preds = %31
  %35 = add nsw i32 %32, -1
  store i32 %35, ptr %1, align 4, !tbaa !8
  br label %lean_dec.exit5

36:                                               ; preds = %31
  %.not.i = icmp eq i32 %32, 0
  br i1 %.not.i, label %lean_dec.exit5, label %37

37:                                               ; preds = %36
  tail call void @lean_dec_ref_cold(ptr noundef nonnull %1) #6
  br label %lean_dec.exit5

lean_dec.exit5:                                   ; preds = %37, %36, %34, %l_Lean_IR_ExplicitRC_mustConsume.exit
  %38 = ptrtoint ptr %0 to i64
  %39 = and i64 %38, 1
  %.not9 = icmp eq i64 %39, 0
  br i1 %.not9, label %40, label %lean_dec.exit

40:                                               ; preds = %lean_dec.exit5
  %41 = load i32, ptr %0, align 4, !tbaa !8
  %42 = icmp sgt i32 %41, 1
  br i1 %42, label %43, label %45, !prof !11

43:                                               ; preds = %40
  %44 = add nsw i32 %41, -1
  store i32 %44, ptr %0, align 4, !tbaa !8
  br label %lean_dec.exit

45:                                               ; preds = %40
  %.not.i6 = icmp eq i32 %41, 0
  br i1 %.not.i6, label %lean_dec.exit, label %46

46:                                               ; preds = %45
  tail call void @lean_dec_ref_cold(ptr noundef nonnull %0) #6
  br label %lean_dec.exit

lean_dec.exit:                                    ; preds = %46, %45, %43, %lean_dec.exit5
  %47 = zext i8 %.0.i to i64
  %48 = shl nuw nsw i64 %47, 1
  %49 = or disjoint i64 %48, 1
  %50 = inttoptr i64 %49 to ptr
  ret ptr %50
}